target datalayout = "e-m:e-p270:32:32-p271:32:32-p272:64:64-i64:64-i128:128-f80:128-n8:16:32:64-S128"
target triple = "x86_64-pc-linux-gnu"

%struct.anon = type { i32, [0 x i8] }

@.str.2 = private unnamed_addr constant [13 x i8] c"be-fsstubs.c\00", align 1
@lo_cleanup_needed = internal global i8 0, align 1
@CurrentMemoryContext = external global ptr, align 8
@.str.25 = private unnamed_addr constant [39 x i8] c"large object read request is too large\00", align 1
@__func__.lo_get_fragment_internal = private unnamed_addr constant [25 x i8] c"lo_get_fragment_internal\00", align 1

; Function Attrs: nounwind uwtable
define internal ptr @lo_get_fragment_internal(i32 noundef %0, i64 noundef %1, i32 noundef %2) #0 {
  %4 = alloca i32, align 4
  %5 = alloca i64, align 8
  %6 = alloca i32, align 4
  %7 = alloca ptr, align 8
  %8 = alloca i64, align 8
  %9 = alloca i64, align 8
  %10 = alloca i32, align 4
  %11 = alloca ptr, align 8
  store i32 %0, ptr %4, align 4
  store i64 %1, ptr %5, align 8
  store i32 %2, ptr %6, align 4
  call void @llvm.lifetime.start.p0(i64 8, ptr %7) #8
  call void @llvm.lifetime.start.p0(i64 8, ptr %8) #8
  call void @llvm.lifetime.start.p0(i64 8, ptr %9) #8
  call void @llvm.lifetime.start.p0(i64 4, ptr %10) #8
  call void @llvm.lifetime.start.p0(i64 8, ptr %11) #8
  store ptr null, ptr %11, align 8
  store i8 1, ptr @lo_cleanup_needed, align 1
  %12 = load i32, ptr %4, align 4
  %13 = load ptr, ptr @CurrentMemoryContext, align 8
  %14 = call ptr @inv_open(i32 noundef %12, i32 noundef 262144, ptr noundef %13)
  store ptr %14, ptr %7, align 8
  %15 = load ptr, ptr %7, align 8
  %16 = call i64 @inv_seek(ptr noundef %15, i64 noundef 0, i32 noundef 2)
  store i64 %16, ptr %8, align 8
  %17 = load i64, ptr %8, align 8
  %18 = load i64, ptr %5, align 8
  %19 = icmp sgt i64 %17, %18
  br i1 %19, label %20, label %38

20:                                               ; preds = %3
  %21 = load i32, ptr %6, align 4
  %22 = icmp sge i32 %21, 0
  br i1 %22, label %23, label %33

23:                                               ; preds = %20
  %24 = load i32, ptr %6, align 4
  %25 = sext i32 %24 to i64
  %26 = load i64, ptr %8, align 8
  %27 = load i64, ptr %5, align 8
  %28 = sub i64 %26, %27
  %29 = icmp sle i64 %25, %28
  br i1 %29, label %30, label %33

30:                                               ; preds = %23
  %31 = load i32, ptr %6, align 4
  %32 = sext i32 %31 to i64
  store i64 %32, ptr %9, align 8
  br label %37

33:                                               ; preds = %23, %20
  %34 = load i64, ptr %8, align 8
  %35 = load i64, ptr %5, align 8
  %36 = sub i64 %34, %35
  store i64 %36, ptr %9, align 8
  br label %37

37:                                               ; preds = %33, %30
  br label %39

38:                                               ; preds = %3
  store i64 0, ptr %9, align 8
  br label %39

39:                                               ; preds = %38, %37
  %40 = load i64, ptr %9, align 8
  %41 = icmp ugt i64 %40, 1073741819
  br i1 %41, label %42, label %54

42:                                               ; preds = %39
  br label %43

43:                                               ; preds = %42
  br i1 true, label %44, label %46

44:                                               ; preds = %43
  %45 = call zeroext i1 @errstart_cold(i32 noundef 21, ptr noundef null) #9
  br i1 %45, label %48, label %51

46:                                               ; preds = %43
  %47 = call zeroext i1 @errstart(i32 noundef 21, ptr noundef null)
  br i1 %47, label %48, label %51

48:                                               ; preds = %46, %44
  %49 = call i32 @errcode(i32 noundef 261)
  %50 = call i32 (ptr, ...) @errmsg(ptr noundef @.str.25)
  call void @errfinish(ptr noundef @.str.2, i32 noundef 779, ptr noundef @__func__.lo_get_fragment_internal)
  br label %51

51:                                               ; preds = %48, %46, %44
  unreachable

52:                                               ; No predecessors!
  br label %53

53:                                               ; preds = %52
  br label %54

54:                                               ; preds = %53, %39
  %55 = load i64, ptr %9, align 8
  %56 = add i64 4, %55
  %57 = call ptr @palloc(i64 noundef %56)
  store ptr %57, ptr %11, align 8
  %58 = load ptr, ptr %7, align 8
  %59 = load i64, ptr %5, align 8
  %60 = call i64 @inv_seek(ptr noundef %58, i64 noundef %59, i32 noundef 0)
  %61 = load ptr, ptr %7, align 8
  %62 = load ptr, ptr %11, align 8
  %63 = getelementptr inbounds nuw %struct.anon, ptr %62, i32 0, i32 1
  %64 = getelementptr inbounds [0 x i8], ptr %63, i64 0, i64 0
  %65 = load i64, ptr %9, align 8
  %66 = trunc i64 %65 to i32
  %67 = call i32 @inv_read(ptr noundef %61, ptr noundef %64, i32 noundef %66)
  store i32 %67, ptr %10, align 4
  %68 = load i64, ptr %9, align 8
  %69 = add i64 %68, 4
  %70 = trunc i64 %69 to i32
  %71 = shl i32 %70, 2
  %72 = load ptr, ptr %11, align 8
  %73 = getelementptr inbounds nuw %struct.anon, ptr %72, i32 0, i32 0
  store i32 %71, ptr %73, align 4
  %74 = load ptr, ptr %7, align 8
  call void @inv_close(ptr noundef %74)
  %75 = load ptr, ptr %11, align 8
  call void @llvm.lifetime.end.p0(i64 8, ptr %11) #8
  call void @llvm.lifetime.end.p0(i64 4, ptr %10) #8
  call void @llvm.lifetime.end.p0(i64 8, ptr %9) #8
  call void @llvm.lifetime.end.p0(i64 8, ptr %8) #8
  call void @llvm.lifetime.end.p0(i64 8, ptr %7) #8
  ret ptr %75
}