; Function Attrs: nounwind uwtable
define internal fastcc ptr @lo_get_fragment_internal(i32 noundef %0, i64 noundef %1, i32 noundef range(i32 -1, -2147483648) %2) unnamed_addr #0 {
  store i1 true, ptr @lo_cleanup_needed, align 1
  %4 = load ptr, ptr @CurrentMemoryContext, align 8
  %5 = tail call ptr @inv_open(i32 noundef %0, i32 noundef 262144, ptr noundef %4) #10
  %6 = tail call i64 @inv_seek(ptr noundef %5, i64 noundef 0, i32 noundef 2) #10
  %7 = icmp sgt i64 %6, %1
  br i1 %7, label %8, label %.thread

8:                                                ; preds = %3
  %9 = icmp slt i32 %2, 0
  %10 = zext nneg i32 %2 to i64
  %11 = sub i64 %6, %1
  %12 = tail call i64 @llvm.smin.i64(i64 %11, i64 %10)
  %spec.select = select i1 %9, i64 %11, i64 %12
  %13 = icmp ugt i64 %spec.select, 1073741819
  br i1 %13, label %14, label %.thread

14:                                               ; preds = %8
  %15 = tail call zeroext i1 @errstart_cold(i32 noundef 21, ptr noundef null) #11
  tail call void @llvm.assume(i1 %15)
  %16 = tail call i32 @errcode(i32 noundef 261) #10
  %17 = tail call i32 (ptr, ...) @errmsg(ptr noundef nonnull @.str.25) #10
  tail call void @errfinish(ptr noundef nonnull @.str.2, i32 noundef 779, ptr noundef nonnull @__func__.lo_get_fragment_internal) #10
  unreachable

.thread:                                          ; preds = %3, %8
  %.027 = phi i64 [ %spec.select, %8 ], [ 0, %3 ]
  %18 = add nuw nsw i64 %.027, 4
  %19 = tail call ptr @palloc(i64 noundef %18) #10
  %20 = tail call i64 @inv_seek(ptr noundef %5, i64 noundef %1, i32 noundef 0) #10
  %21 = getelementptr inbounds nuw i8, ptr %19, i64 4
  %22 = trunc nuw nsw i64 %.027 to i32
  %23 = tail call i32 @inv_read(ptr noundef %5, ptr noundef nonnull %21, i32 noundef %22) #10
  %24 = trunc nuw nsw i64 %18 to i32
  %25 = shl nuw i32 %24, 2
  store i32 %25, ptr %19, align 4
  tail call void @inv_close(ptr noundef %5) #10
  ret ptr %19
}